Certificate:
    Data:
        Version: 3 (0x2)
        Serial Number: 2 (0x2)
    Signature Algorithm: sha256WithRSAEncryption
        Issuer: CN=Easy-RSA CA
        Validity
            Not Before: Oct  5 09:18:44 2015 GMT
            Not After : Oct  2 09:18:44 2025 GMT
        Subject: CN=client0
        Subject Public Key Info:
            Public Key Algorithm: rsaEncryption
                Public-Key: (2048 bit)
                Modulus:
                    00:e3:f9:15:e5:b6:6e:a7:ca:bf:32:78:be:d1:60:
                    7b:9e:ce:f2:f8:ee:b9:92:2e:fa:18:c1:ab:35:8e:
                    20:28:dc:12:b4:38:99:d6:d8:a2:8f:e9:6e:c5:b2:
                    af:97:bd:82:7e:43:80:1f:f5:c9:05:d7:80:a1:50:
                    93:63:da:33:6b:b4:e9:0d:4a:e9:04:81:5c:3b:6a:
                    d5:ad:82:db:6e:5c:68:6c:5c:41:91:c0:8c:97:31:
                    22:64:03:91:31:ee:02:c2:1e:bf:ce:55:b0:36:9f:
                    2d:33:48:1a:76:e7:ac:9f:c2:d7:74:ea:6a:bb:cd:
                    b4:a9:27:44:2c:84:fe:dc:a4:19:3f:24:74:6e:80:
                    52:2f:38:8a:01:f3:66:63:47:12:12:76:87:f4:e1:
                    cf:c2:76:41:0a:7f:1b:ef:ab:4a:19:bd:39:1a:68:
                    95:9c:40:60:14:0b:32:ea:47:12:21:14:87:2a:32:
                    ce:c0:7e:46:b1:ea:12:d7:50:82:0c:8c:fd:7c:44:
                    17:38:eb:2b:14:b9:b7:d2:4d:7d:d3:59:6d:60:32:
                    03:87:77:59:88:ac:87:5b:07:aa:1e:78:51:32:17:
                    3a:dc:ee:fe:c3:37:05:e4:20:c0:fa:96:73:2d:71:
                    20:f6:f3:68:21:17:b1:f0:bb:c5:57:76:5f:39:2c:
                    47:3f
                Exponent: 65537 (0x10001)
        X509v3 extensions:
            X509v3 Basic Constraints: 
                CA:FALSE
            X509v3 Subject Key Identifier: 
                52:F8:E3:3E:59:8C:90:AE:CD:DB:D4:7E:F3:77:C9:CC:78:F6:C9:2C
            X509v3 Authority Key Identifier: 
                keyid:D2:26:C6:7C:C7:69:62:B9:F3:8D:A1:63:DA:DE:E7:7D:54:78:60:5F
                DirName:/CN=Easy-RSA CA
                serial:BB:1F:2F:7B:34:7E:1D:00

            X509v3 Extended Key Usage: 
                TLS Web Client Authentication
            X509v3 Key Usage: 
                Digital Signature
    Signature Algorithm: sha256WithRSAEncryption
         36:23:0c:72:d0:11:76:ad:92:fe:7a:6b:f5:31:e2:a2:0b:62:
         ef:c8:9d:a6:74:6c:32:a8:5d:d1:88:ad:df:f8:70:83:dd:ba:
         83:ba:80:71:ef:42:02:89:f2:b0:18:8d:f0:75:c5:bd:3c:c7:
         9d:7e:f2:c8:4c:d6:3a:07:22:37:ab:a5:bb:c1:28:29:af:dc:
         77:54:3e:a0:eb:aa:1f:45:22:39:95:6d:9e:01:95:42:81:6e:
         3b:5a:66:ef:17:cc:a5:d1:e4:a3:1b:c3:5d:c4:99:74:48:fd:
         d9:9f:62:72:f4:10:6b:b0:7a:b6:e2:75:42:9e:bb:25:69:51:
         e4:92:8b:03:bb:1d:57:23:60:d4:9d:8f:fd:de:d6:3a:f9:99:
         2a:b3:d4:b3:15:d9:da:4e:1c:dd:bf:de:eb:84:95:00:93:95:
         60:7e:7d:ae:40:2e:fc:ff:de:e6:2f:dd:90:e9:ff:d5:90:6f:
         a1:be:8d:3c:67:e8:1d:00:29:c9:b6:ef:40:f0:f5:aa:a6:dc:
         e1:fb:3d:78:57:5d:c0:9c:d4:90:40:3b:38:65:87:6b:cf:72:
         01:b6:c0:9f:a0:78:cf:3d:9d:b7:4a:b1:0d:c2:bd:aa:a0:32:
         32:f2:4f:6d:29:87:53:b7:b4:eb:21:86:b3:e4:f3:46:4e:30:
         4d:ad:24:2e
-----BEGIN CERTIFICATE-----
MIIDOzCCAiOgAwIBAgIBAjANBgkqhkiG9w0BAQsFADAWMRQwEgYDVQQDDAtFYXN5
LVJTQSBDQTAeFw0xNTEwMDUwOTE4NDRaFw0yNTEwMDIwOTE4NDRaMBIxEDAOBgNV
BAMMB2NsaWVudDAwggEiMA0GCSqGSIb3DQEBAQUAA4IBDwAwggEKAoIBAQDj+RXl
tm6nyr8yeL7RYHuezvL47rmSLvoYwas1jiAo3BK0OJnW2KKP6W7Fsq+XvYJ+Q4Af
9ckF14ChUJNj2jNrtOkNSukEgVw7atWtgttuXGhsXEGRwIyXMSJkA5Ex7gLCHr/O
VbA2ny0zSBp256yfwtd06mq7zbSpJ0QshP7cpBk/JHRugFIvOIoB82ZjRxISdof0
4c/CdkEKfxvvq0oZvTkaaJWcQGAUCzLqRxIhFIcqMs7Afkax6hLXUIIMjP18RBc4
6ysUubfSTX3TWW1gMgOHd1mIrIdbB6oeeFEyFzrc7v7DNwXkIMD6lnMtcSD282gh
F7Hwu8VXdl85LEc/AgMBAAGjgZcwgZQwCQYDVR0TBAIwADAdBgNVHQ4EFgQUUvjj
PlmMkK7N29R+83fJzHj2ySwwRgYDVR0jBD8wPYAU0ibGfMdpYrnzjaFj2t7nfVR4
YF+hGqQYMBYxFDASBgNVBAMMC0Vhc3ktUlNBIENBggkAux8vezR+HQAwEwYDVR0l
BAwwCgYIKwYBBQUHAwIwCwYDVR0PBAQDAgeAMA0GCSqGSIb3DQEBCwUAA4IBAQA2
Iwxy0BF2rZL+emv1MeKiC2LvyJ2mdGwyqF3RiK3f+HCD3bqDuoBx70ICifKwGI3w
dcW9PMedfvLITNY6ByI3q6W7wSgpr9x3VD6g66ofRSI5lW2eAZVCgW47WmbvF8yl
0eSjG8NdxJl0SP3Zn2Jy9BBrsHq24nVCnrslaVHkkosDux1XI2DUnY/93tY6+Zkq
s9SzFdnaThzdv97rhJUAk5Vgfn2uQC78/97mL92Q6f/VkG+hvo08Z+gdACnJtu9A
8PWqptzh+z14V13AnNSQQDs4ZYdrz3IBtsCfoHjPPZ23SrENwr2qoDIy8k9tKYdT
t7TrIYaz5PNGTjBNrSQu
-----END CERTIFICATE-----
